(dp1
S'failed'
p2
(lp3
S'1'
aS'2'
aS'4'
asS'source_names'
p4
(lp5
S'.'
asS'ids'
p6
(dp7
I1
(S'/home/esehara/Python/AozoraPublish/aozorapublish/tests/testManager.py'
S'testManager'
p8
S'TestManager.Test_Download_Page'
tp9
sI2
(S'/home/esehara/Python/AozoraPublish/aozorapublish/tests/testManager.py'
g8
S'TestManager.Test_Generate_Container'
tp10
sI3
(S'/home/esehara/Python/AozoraPublish/aozorapublish/tests/testManager.py'
g8
S'TestManager.Test_Generate_Page'
tp11
sI4
(S'/home/esehara/Python/AozoraPublish/aozorapublish/tests/testManager.py'
g8
S'TestManager.Test_Generate_Toc'
tp12
sI5
(S'/home/esehara/Python/AozoraPublish/aozorapublish/tests/testManager.py'
g8
S'TestManager.Test_Initialize_Directory'
tp13
sI6
(S'/home/esehara/Python/AozoraPublish/aozorapublish/tests/testManager.py'
g8
S'TestManager.Test_Path_is_have'
tp14
sI7
(S'/home/esehara/Python/AozoraPublish/aozorapublish/tests/testManager.py'
g8
S'TestManager.Test_Path_is_not_have'
tp15
sI8
(S'/home/esehara/Python/AozoraPublish/aozorapublish/tests/testManager.py'
g8
S'TestManager.Test_Working_Directory_make'
tp16
sI9
(S'/home/esehara/Python/AozoraPublish/aozorapublish/tests/testManager.py'
g8
S'TestRunner.TestisRunning'
tp17
sI10
(S'/home/esehara/Python/AozoraPublish/aozorapublish/tests/testPages.py'
S'testPages'
p18
S'TestPage.TestAozoraCardCreate'
tp19
sI11
(S'/home/esehara/Python/AozoraPublish/aozorapublish/tests/testPages.py'
g18
S'TestPage.TestAozoraCardParse'
tp20
sI12
(S'/home/esehara/Python/AozoraPublish/aozorapublish/tests/testPages.py'
g18
S'TestPage.TestPageCanCreate'
tp21
sI13
(S'/home/esehara/Python/AozoraPublish/aozorapublish/tests/testUtil.py'
S'testUtil'
p22
S'TestUtil.TestLinkisGet'
tp23
ss.